target datalayout = "e-m:e-p270:32:32-p271:32:32-p272:64:64-i64:64-i128:128-f80:128-n8:16:32:64-S128"
target triple = "x86_64-pc-linux-gnu"

%struct.H5C_class_t = type { i32, ptr, i32, i32, ptr, ptr, ptr, ptr, ptr, ptr, ptr, ptr, ptr, ptr }
%struct.H5HF_hdr_t = type { %struct.H5C_cache_entry_t, i32, i32, i8, i8, i8, i8, %struct.H5HF_dtable_t, i64, i64, i32, i64, i64, %struct.H5O_pline_t, i64, i32, i64, i64, i64, i64, i64, i64, i64, i64, i64, i64, i64, i32, ptr, i64, i8, i8, i8, ptr, i32, ptr, %struct.H5HF_block_iter_t, ptr, i64, i8, i8, i64, i8, i8, i8, i8 }
%struct.H5C_cache_entry_t = type { ptr, i64, i64, ptr, i8, ptr, i8, i8, i8, i8, i32, i8, i8, i8, i8, i8, i32, ptr, i32, i32, i32, i32, i32, i8, i8, ptr, ptr, ptr, ptr, ptr, ptr, i8, i32, i8, i64, ptr, i64, i64, i32, i8, i32, i32, i8, ptr, ptr, ptr }
%struct.H5HF_dtable_t = type { %struct.H5HF_dtable_cparam_t, i64, i32, i32, i32, i32, i32, i32, i32, i64, ptr, ptr, ptr, ptr }
%struct.H5HF_dtable_cparam_t = type { i32, i64, i64, i32, i32 }
%struct.H5O_pline_t = type { %struct.H5O_shared_t, i32, i64, i64, ptr }
%struct.H5O_shared_t = type { i32, ptr, i32, %union.anon }
%union.anon = type { %struct.H5O_mesg_loc_t }
%struct.H5O_mesg_loc_t = type { i32, i64 }
%struct.H5HF_block_iter_t = type { i8, ptr }
%struct.H5HF_hdr_cache_ud_t = type { ptr }

@H5HF_init_g = external global i8, align 1
@H5_libterm_g = external global i8, align 1
@.str = private unnamed_addr constant [101 x i8] c"generated/home/dtcxzyw/WorkSpace/Projects/compilers/llvm-opt-benchmark/bench/hdf5/hdf5/src/H5HFhdr.c\00", align 1
@H5E_HEAP_g = external global i64, align 8
@H5AC_FHEAP_HDR = external constant [1 x %struct.H5C_class_t], align 16
@__func__.H5HF__hdr_protect = private unnamed_addr constant [18 x i8] c"H5HF__hdr_protect\00", align 1
@H5E_CANTPROTECT_g = external global i64, align 8
@.str.21 = private unnamed_addr constant [38 x i8] c"unable to protect fractal heap header\00", align 1

; Function Attrs: nounwind uwtable
define ptr @H5HF__hdr_protect(ptr noundef %0, i64 noundef %1, i32 noundef %2) #0 {
  %4 = alloca ptr, align 8
  %5 = alloca i64, align 8
  %6 = alloca i32, align 4
  %7 = alloca %struct.H5HF_hdr_cache_ud_t, align 8
  %8 = alloca ptr, align 8
  %9 = alloca ptr, align 8
  %10 = alloca i8, align 1
  store ptr %0, ptr %4, align 8, !tbaa !3
  store i64 %1, ptr %5, align 8, !tbaa !14
  store i32 %2, ptr %6, align 4, !tbaa !38
  call void @llvm.lifetime.start.p0(i64 8, ptr %7) #7
  call void @llvm.lifetime.start.p0(i64 8, ptr %8) #7
  call void @llvm.lifetime.start.p0(i64 8, ptr %9) #7
  store ptr null, ptr %9, align 8, !tbaa !8
  call void @llvm.lifetime.start.p0(i64 1, ptr %10) #7
  store i8 0, ptr %10, align 1, !tbaa !10
  %11 = load i8, ptr @H5HF_init_g, align 1, !tbaa !10, !range !12, !noundef !13
  %12 = trunc i8 %11 to i1
  br i1 %12, label %17, label %13

13:                                               ; preds = %3
  %14 = load i8, ptr @H5_libterm_g, align 1, !tbaa !10, !range !12, !noundef !13
  %15 = trunc i8 %14 to i1
  %16 = xor i1 %15, true
  br label %17

17:                                               ; preds = %13, %3
  %18 = phi i1 [ true, %3 ], [ %16, %13 ]
  %19 = xor i1 %18, true
  %20 = xor i1 %19, true
  %21 = zext i1 %20 to i32
  %22 = sext i32 %21 to i64
  %23 = call i64 @llvm.expect.i64(i64 %22, i64 1)
  %24 = icmp ne i64 %23, 0
  br i1 %24, label %25, label %61

25:                                               ; preds = %17
  %26 = load ptr, ptr %4, align 8, !tbaa !3
  %27 = getelementptr inbounds nuw %struct.H5HF_hdr_cache_ud_t, ptr %7, i32 0, i32 0
  store ptr %26, ptr %27, align 8, !tbaa !72
  %28 = load ptr, ptr %4, align 8, !tbaa !3
  %29 = load i64, ptr %5, align 8, !tbaa !14
  %30 = load i32, ptr %6, align 4, !tbaa !38
  %31 = call ptr @H5AC_protect(ptr noundef %28, ptr noundef @H5AC_FHEAP_HDR, i64 noundef %29, ptr noundef %7, i32 noundef %30)
  store ptr %31, ptr %8, align 8, !tbaa !8
  %32 = icmp eq ptr null, %31
  br i1 %32, label %33, label %52

33:                                               ; preds = %25
  br label %34

34:                                               ; preds = %33
  br label %35

35:                                               ; preds = %34
  br label %36

36:                                               ; preds = %35
  %37 = load i64, ptr @H5E_HEAP_g, align 8, !tbaa !14
  %38 = load i64, ptr @H5E_CANTPROTECT_g, align 8, !tbaa !14
  %39 = call i32 (ptr, ptr, i32, i64, i64, ptr, ...) @H5E_printf_stack(ptr noundef @.str, ptr noundef @__func__.H5HF__hdr_protect, i32 noundef 512, i64 noundef %37, i64 noundef %38, ptr noundef @.str.21)
  br label %40

40:                                               ; preds = %36
  br label %41

41:                                               ; preds = %40
  store i8 1, ptr %10, align 1, !tbaa !10
  %42 = load i8, ptr %10, align 1, !tbaa !10, !range !12, !noundef !13
  %43 = trunc i8 %42 to i1
  %44 = zext i1 %43 to i8
  store i8 %44, ptr %10, align 1, !tbaa !10
  br label %45

45:                                               ; preds = %41
  br label %46

46:                                               ; preds = %45
  br label %47

47:                                               ; preds = %46
  store ptr null, ptr %9, align 8, !tbaa !8
  br label %60

48:                                               ; No predecessors!
  br label %49

49:                                               ; preds = %48
  br label %50

50:                                               ; preds = %49
  br label %51

51:                                               ; preds = %50
  br label %52

52:                                               ; preds = %51, %25
  %53 = load i64, ptr %5, align 8, !tbaa !14
  %54 = load ptr, ptr %8, align 8, !tbaa !8
  %55 = getelementptr inbounds nuw %struct.H5HF_hdr_t, ptr %54, i32 0, i32 25
  store i64 %53, ptr %55, align 8, !tbaa !70
  %56 = load ptr, ptr %4, align 8, !tbaa !3
  %57 = load ptr, ptr %8, align 8, !tbaa !8
  %58 = getelementptr inbounds nuw %struct.H5HF_hdr_t, ptr %57, i32 0, i32 28
  store ptr %56, ptr %58, align 8, !tbaa !16
  %59 = load ptr, ptr %8, align 8, !tbaa !8
  store ptr %59, ptr %9, align 8, !tbaa !8
  br label %60

60:                                               ; preds = %52, %47
  br label %61

61:                                               ; preds = %60, %17
  %62 = load ptr, ptr %9, align 8, !tbaa !8
  call void @llvm.lifetime.end.p0(i64 1, ptr %10) #7
  call void @llvm.lifetime.end.p0(i64 8, ptr %9) #7
  call void @llvm.lifetime.end.p0(i64 8, ptr %8) #7
  call void @llvm.lifetime.end.p0(i64 8, ptr %7) #7
  ret ptr %62
}