; Function Attrs: nounwind uwtable
define ptr @H5HF__hdr_protect(ptr noundef %0, i64 noundef %1, i32 noundef %2) local_unnamed_addr #0 {
  %4 = alloca %struct.H5HF_hdr_cache_ud_t, align 8
  call void @llvm.lifetime.start.p0(i64 8, ptr nonnull %4) #7
  %5 = load i8, ptr @H5HF_init_g, align 1, !tbaa !3, !range !7, !noundef !8
  %6 = trunc nuw i8 %5 to i1
  %7 = load i8, ptr @H5_libterm_g, align 1, !range !7
  %8 = trunc nuw i8 %7 to i1
  %9 = xor i1 %8, true
  %10 = select i1 %6, i1 true, i1 %9
  br i1 %10, label %11, label %21, !prof !9

11:                                               ; preds = %3
  store ptr %0, ptr %4, align 8, !tbaa !68
  %12 = call ptr @H5AC_protect(ptr noundef %0, ptr noundef nonnull @H5AC_FHEAP_HDR, i64 noundef %1, ptr noundef nonnull %4, i32 noundef %2) #7
  %13 = icmp eq ptr %12, null
  br i1 %13, label %14, label %18

14:                                               ; preds = %11
  %15 = load i64, ptr @H5E_HEAP_g, align 8, !tbaa !10
  %16 = load i64, ptr @H5E_CANTPROTECT_g, align 8, !tbaa !10
  %17 = call i32 (ptr, ptr, i32, i64, i64, ptr, ...) @H5E_printf_stack(ptr noundef nonnull @.str, ptr noundef nonnull @__func__.H5HF__hdr_protect, i32 noundef 512, i64 noundef %15, i64 noundef %16, ptr noundef nonnull @.str.21) #7
  br label %21

18:                                               ; preds = %11
  %19 = getelementptr inbounds nuw i8, ptr %12, i64 576
  store i64 %1, ptr %19, align 8, !tbaa !66
  %20 = getelementptr inbounds nuw i8, ptr %12, i64 600
  store ptr %0, ptr %20, align 8, !tbaa !12
  br label %21

21:                                               ; preds = %14, %18, %3
  %.0 = phi ptr [ null, %14 ], [ %12, %18 ], [ null, %3 ]
  call void @llvm.lifetime.end.p0(i64 8, ptr nonnull %4) #7
  ret ptr %.0
}